Archive member included to satisfy reference by file (symbol)

/usr/share/gcc-arm-none-eabi-10.3-2021.10/bin/../lib/gcc/arm-none-eabi/10.3.1/libgcc.a(_udivsi3.o)
                              build/stdio.o (__aeabi_uidiv)
/usr/share/gcc-arm-none-eabi-10.3-2021.10/bin/../lib/gcc/arm-none-eabi/10.3.1/libgcc.a(_dvmd_tls.o)
                              /usr/share/gcc-arm-none-eabi-10.3-2021.10/bin/../lib/gcc/arm-none-eabi/10.3.1/libgcc.a(_udivsi3.o) (__aeabi_idiv0)

Memory Configuration

Name             Origin             Length             Attributes
*default*        0x0000000000000000 0xffffffffffffffff

Linker script and memory map

LOAD build/Entry.os
LOAD build/Main.o
LOAD build/Uart.o
LOAD build/Reg.o
LOAD build/stdio.o
LOAD /usr/share/gcc-arm-none-eabi-10.3-2021.10/bin/../lib/gcc/arm-none-eabi/10.3.1/libgcc.a
                0x0000000000000000                . = 0x0

.text           0x0000000000000000      0x980
 *(vector_start)
 *(.text .rodata)
 .text          0x0000000000000000       0xd4 build/Entry.os
                0x0000000000000000                vector_start
                0x000000000000003c                vector_end
 .text          0x00000000000000d4      0x150 build/Main.o
                0x00000000000000d4                main
 .rodata        0x0000000000000224       0x9b build/Main.o
 *fill*         0x00000000000002bf        0x1 
 .text          0x00000000000002c0      0x15c build/Uart.o
                0x00000000000002c0                Hal_uart_init
                0x0000000000000338                Hal_uart_put_char
                0x0000000000000394                Hal_uart_get_char
 .text          0x000000000000041c        0x0 build/Reg.o
 .text          0x000000000000041c      0x444 build/stdio.o
                0x000000000000041c                putstr
                0x000000000000047c                debug_printf
                0x00000000000004cc                vsprintf
                0x000000000000074c                utoa
 .rodata        0x0000000000000860        0x7 build/stdio.o
 *fill*         0x0000000000000867        0x1 
 .text          0x0000000000000868      0x114 /usr/share/gcc-arm-none-eabi-10.3-2021.10/bin/../lib/gcc/arm-none-eabi/10.3.1/libgcc.a(_udivsi3.o)
                0x0000000000000868                __udivsi3
                0x0000000000000868                __aeabi_uidiv
                0x000000000000095c                __aeabi_uidivmod
 .text          0x000000000000097c        0x4 /usr/share/gcc-arm-none-eabi-10.3-2021.10/bin/../lib/gcc/arm-none-eabi/10.3.1/libgcc.a(_dvmd_tls.o)
                0x000000000000097c                __aeabi_ldiv0
                0x000000000000097c                __aeabi_idiv0

.glue_7         0x0000000000000980        0x0
 .glue_7        0x0000000000000980        0x0 linker stubs

.glue_7t        0x0000000000000980        0x0
 .glue_7t       0x0000000000000980        0x0 linker stubs

.vfp11_veneer   0x0000000000000980        0x0
 .vfp11_veneer  0x0000000000000980        0x0 linker stubs

.v4_bx          0x0000000000000980        0x0
 .v4_bx         0x0000000000000980        0x0 linker stubs

.iplt           0x0000000000000980        0x0
 .iplt          0x0000000000000980        0x0 build/Entry.os

.rel.dyn        0x0000000000000980        0x0
 .rel.iplt      0x0000000000000980        0x0 build/Entry.os

.data           0x0000000000000980        0x4
 *(.data)
 .data          0x0000000000000980        0x0 build/Entry.os
 .data          0x0000000000000980        0x0 build/Main.o
 .data          0x0000000000000980        0x0 build/Uart.o
 .data          0x0000000000000980        0x4 build/Reg.o
                0x0000000000000980                Uart
 .data          0x0000000000000984        0x0 build/stdio.o
 .data          0x0000000000000984        0x0 /usr/share/gcc-arm-none-eabi-10.3-2021.10/bin/../lib/gcc/arm-none-eabi/10.3.1/libgcc.a(_udivsi3.o)
 .data          0x0000000000000984        0x0 /usr/share/gcc-arm-none-eabi-10.3-2021.10/bin/../lib/gcc/arm-none-eabi/10.3.1/libgcc.a(_dvmd_tls.o)

.igot.plt       0x0000000000000984        0x0
 .igot.plt      0x0000000000000984        0x0 build/Entry.os

.bss            0x0000000000000984      0x400
 *(.bss)
 .bss           0x0000000000000984        0x0 build/Entry.os
 .bss           0x0000000000000984        0x0 build/Main.o
 .bss           0x0000000000000984        0x0 build/Uart.o
 .bss           0x0000000000000984        0x0 build/Reg.o
 .bss           0x0000000000000984      0x400 build/stdio.o
 .bss           0x0000000000000d84        0x0 /usr/share/gcc-arm-none-eabi-10.3-2021.10/bin/../lib/gcc/arm-none-eabi/10.3.1/libgcc.a(_udivsi3.o)
 .bss           0x0000000000000d84        0x0 /usr/share/gcc-arm-none-eabi-10.3-2021.10/bin/../lib/gcc/arm-none-eabi/10.3.1/libgcc.a(_dvmd_tls.o)
OUTPUT(build/navilos.axf elf32-littlearm)
LOAD linker stubs

.ARM.attributes
                0x0000000000000000       0x2b
 .ARM.attributes
                0x0000000000000000       0x1d build/Entry.os
 .ARM.attributes
                0x000000000000001d       0x2f build/Main.o
 .ARM.attributes
                0x000000000000004c       0x2f build/Uart.o
 .ARM.attributes
                0x000000000000007b       0x2f build/Reg.o
 .ARM.attributes
                0x00000000000000aa       0x2f build/stdio.o
 .ARM.attributes
                0x00000000000000d9       0x1c /usr/share/gcc-arm-none-eabi-10.3-2021.10/bin/../lib/gcc/arm-none-eabi/10.3.1/libgcc.a(_udivsi3.o)
 .ARM.attributes
                0x00000000000000f5       0x1c /usr/share/gcc-arm-none-eabi-10.3-2021.10/bin/../lib/gcc/arm-none-eabi/10.3.1/libgcc.a(_dvmd_tls.o)

.comment        0x0000000000000000       0x49
 .comment       0x0000000000000000       0x49 build/Main.o
                                         0x4a (size before relaxing)
 .comment       0x0000000000000049       0x4a build/Uart.o
 .comment       0x0000000000000049       0x4a build/Reg.o
 .comment       0x0000000000000049       0x4a build/stdio.o

.debug_line     0x0000000000000000      0x39f
 .debug_line    0x0000000000000000       0x6d build/Entry.os
 .debug_line    0x000000000000006d       0x98 build/Main.o
 .debug_line    0x0000000000000105       0xd3 build/Uart.o
 .debug_line    0x00000000000001d8       0x4d build/Reg.o
 .debug_line    0x0000000000000225      0x17a build/stdio.o

.debug_info     0x0000000000000000     0x1acf
 .debug_info    0x0000000000000000       0x26 build/Entry.os
 .debug_info    0x0000000000000026      0x11d build/Main.o
 .debug_info    0x0000000000000143      0xba7 build/Uart.o
 .debug_info    0x0000000000000cea      0xb38 build/Reg.o
 .debug_info    0x0000000000001822      0x2ad build/stdio.o

.debug_abbrev   0x0000000000000000      0x480
 .debug_abbrev  0x0000000000000000       0x14 build/Entry.os
 .debug_abbrev  0x0000000000000014       0xd1 build/Main.o
 .debug_abbrev  0x00000000000000e5      0x172 build/Uart.o
 .debug_abbrev  0x0000000000000257       0xf8 build/Reg.o
 .debug_abbrev  0x000000000000034f      0x131 build/stdio.o

.debug_aranges  0x0000000000000000       0x98
 .debug_aranges
                0x0000000000000000       0x20 build/Entry.os
 .debug_aranges
                0x0000000000000020       0x20 build/Main.o
 .debug_aranges
                0x0000000000000040       0x20 build/Uart.o
 .debug_aranges
                0x0000000000000060       0x18 build/Reg.o
 .debug_aranges
                0x0000000000000078       0x20 build/stdio.o

.debug_str      0x0000000000000000      0x4e3
 .debug_str     0x0000000000000000       0x31 build/Entry.os
 .debug_str     0x0000000000000031      0x104 build/Main.o
                                        0x138 (size before relaxing)
 .debug_str     0x0000000000000135      0x327 build/Uart.o
                                        0x42d (size before relaxing)
 .debug_str     0x000000000000045c        0xf build/Reg.o
                                        0x3ed (size before relaxing)
 .debug_str     0x000000000000046b       0x78 build/stdio.o
                                        0x179 (size before relaxing)

.debug_frame    0x0000000000000000      0x1a8
 .debug_frame   0x0000000000000000       0x6c build/Main.o
 .debug_frame   0x000000000000006c       0x70 build/Uart.o
 .debug_frame   0x00000000000000dc       0xac build/stdio.o
 .debug_frame   0x0000000000000188       0x20 /usr/share/gcc-arm-none-eabi-10.3-2021.10/bin/../lib/gcc/arm-none-eabi/10.3.1/libgcc.a(_udivsi3.o)
